target datalayout = "e-m:e-p270:32:32-p271:32:32-p272:64:64-i64:64-i128:128-f80:128-n8:16:32:64-S128"
target triple = "x86_64-unknown-linux-gnu"

%"class.cvc5::internal::prop::CadicalSolver" = type { %"class.cvc5::internal::prop::CDCLTSatSolver", %"class.cvc5::internal::EnvObj", %"class.std::unique_ptr", %"class.std::unique_ptr.2", ptr, ptr, %"class.std::unique_ptr.10", %"class.std::vector", i32, i8, i64, i64, %"struct.cvc5::internal::prop::CadicalSolver::Statistics" }
%"class.cvc5::internal::prop::CDCLTSatSolver" = type { %"class.cvc5::internal::prop::SatSolver" }
%"class.cvc5::internal::prop::SatSolver" = type { ptr }
%"class.cvc5::internal::EnvObj" = type { ptr, ptr }
%"class.std::unique_ptr" = type { %"struct.std::__uniq_ptr_data" }
%"struct.std::__uniq_ptr_data" = type { %"class.std::__uniq_ptr_impl" }
%"class.std::__uniq_ptr_impl" = type { %"class.std::tuple" }
%"class.std::tuple" = type { %"struct.std::_Tuple_impl" }
%"struct.std::_Tuple_impl" = type { %"struct.std::_Head_base.1" }
%"struct.std::_Head_base.1" = type { ptr }
%"class.std::unique_ptr.2" = type { %"struct.std::__uniq_ptr_data.3" }
%"struct.std::__uniq_ptr_data.3" = type { %"class.std::__uniq_ptr_impl.4" }
%"class.std::__uniq_ptr_impl.4" = type { %"class.std::tuple.5" }
%"class.std::tuple.5" = type { %"struct.std::_Tuple_impl.6" }
%"struct.std::_Tuple_impl.6" = type { %"struct.std::_Head_base.9" }
%"struct.std::_Head_base.9" = type { ptr }
%"class.std::unique_ptr.10" = type { %"struct.std::__uniq_ptr_data.11" }
%"struct.std::__uniq_ptr_data.11" = type { %"class.std::__uniq_ptr_impl.12" }
%"class.std::__uniq_ptr_impl.12" = type { %"class.std::tuple.13" }
%"class.std::tuple.13" = type { %"struct.std::_Tuple_impl.14" }
%"struct.std::_Tuple_impl.14" = type { %"struct.std::_Head_base.17" }
%"struct.std::_Head_base.17" = type { ptr }
%"class.std::vector" = type { %"struct.std::_Vector_base" }
%"struct.std::_Vector_base" = type { %"struct.std::_Vector_base<cvc5::internal::prop::SatLiteral, std::allocator<cvc5::internal::prop::SatLiteral>>::_Vector_impl" }
%"struct.std::_Vector_base<cvc5::internal::prop::SatLiteral, std::allocator<cvc5::internal::prop::SatLiteral>>::_Vector_impl" = type { %"struct.std::_Vector_base<cvc5::internal::prop::SatLiteral, std::allocator<cvc5::internal::prop::SatLiteral>>::_Vector_impl_data" }
%"struct.std::_Vector_base<cvc5::internal::prop::SatLiteral, std::allocator<cvc5::internal::prop::SatLiteral>>::_Vector_impl_data" = type { ptr, ptr, ptr }
%"struct.cvc5::internal::prop::CadicalSolver::Statistics" = type { %"class.cvc5::internal::IntStat", %"class.cvc5::internal::IntStat", %"class.cvc5::internal::IntStat", %"class.cvc5::internal::TimerStat" }
%"class.cvc5::internal::IntStat" = type { %"class.cvc5::internal::ValueStat" }
%"class.cvc5::internal::ValueStat" = type { ptr }
%"class.cvc5::internal::TimerStat" = type { ptr }

; Function Attrs: mustprogress nounwind uwtable
define linkonce_odr hidden noundef nonnull align 8 dereferenceable(8) ptr @_ZNSt10_Head_baseILm0EPN4cvc58internal4prop17CadicalPropagatorELb0EE7_M_headERKS5_(ptr noundef nonnull align 8 dereferenceable(8) %__b) #4 comdat align 2 {
entry:
  %__b.addr = alloca ptr, align 8
  store ptr %__b, ptr %__b.addr, align 8
  %0 = load ptr, ptr %__b.addr, align 8
  %_M_head_impl = getelementptr inbounds %"struct.std::_Head_base.17", ptr %0, i32 0, i32 0
  ret ptr %_M_head_impl
}

; Function Attrs: mustprogress nounwind uwtable
define linkonce_odr hidden noundef nonnull align 8 dereferenceable(8) ptr @_ZNSt11_Tuple_implILm0EJPN4cvc58internal4prop17CadicalPropagatorESt14default_deleteIS3_EEE7_M_headERKS7_(ptr noundef nonnull align 8 dereferenceable(8) %__t) #4 comdat align 2 {
entry:
  %__t.addr = alloca ptr, align 8
  store ptr %__t, ptr %__t.addr, align 8
  %0 = load ptr, ptr %__t.addr, align 8
  %call = call noundef nonnull align 8 dereferenceable(8) ptr @_ZNSt10_Head_baseILm0EPN4cvc58internal4prop17CadicalPropagatorELb0EE7_M_headERKS5_(ptr noundef nonnull align 8 dereferenceable(8) %0) #3
  ret ptr %call
}

; Function Attrs: mustprogress nounwind uwtable
define linkonce_odr hidden noundef nonnull align 8 dereferenceable(8) ptr @_ZSt12__get_helperILm0EPN4cvc58internal4prop17CadicalPropagatorEJSt14default_deleteIS3_EEERKT0_RKSt11_Tuple_implIXT_EJS7_DpT1_EE(ptr noundef nonnull align 8 dereferenceable(8) %__t) #4 comdat {
entry:
  %__t.addr = alloca ptr, align 8
  store ptr %__t, ptr %__t.addr, align 8
  %0 = load ptr, ptr %__t.addr, align 8
  %call = call noundef nonnull align 8 dereferenceable(8) ptr @_ZNSt11_Tuple_implILm0EJPN4cvc58internal4prop17CadicalPropagatorESt14default_deleteIS3_EEE7_M_headERKS7_(ptr noundef nonnull align 8 dereferenceable(8) %0) #3
  ret ptr %call
}

; Function Attrs: mustprogress nounwind uwtable
define linkonce_odr hidden noundef nonnull align 8 dereferenceable(8) ptr @_ZSt3getILm0EJPN4cvc58internal4prop17CadicalPropagatorESt14default_deleteIS3_EEERKNSt13tuple_elementIXT_ESt5tupleIJDpT0_EEE4typeERKSB_(ptr noundef nonnull align 8 dereferenceable(8) %__t) #4 comdat {
entry:
  %__t.addr = alloca ptr, align 8
  store ptr %__t, ptr %__t.addr, align 8
  %0 = load ptr, ptr %__t.addr, align 8
  %call = call noundef nonnull align 8 dereferenceable(8) ptr @_ZSt12__get_helperILm0EPN4cvc58internal4prop17CadicalPropagatorEJSt14default_deleteIS3_EEERKT0_RKSt11_Tuple_implIXT_EJS7_DpT1_EE(ptr noundef nonnull align 8 dereferenceable(8) %0) #3
  ret ptr %call
}

; Function Attrs: mustprogress nounwind uwtable
define linkonce_odr hidden noundef ptr @_ZNKSt15__uniq_ptr_implIN4cvc58internal4prop17CadicalPropagatorESt14default_deleteIS3_EE6_M_ptrEv(ptr noundef nonnull align 8 dereferenceable(8) %this) #4 comdat align 2 {
entry:
  %this.addr = alloca ptr, align 8
  store ptr %this, ptr %this.addr, align 8
  %this1 = load ptr, ptr %this.addr, align 8
  %_M_t = getelementptr inbounds %"class.std::__uniq_ptr_impl.12", ptr %this1, i32 0, i32 0
  %call = call noundef nonnull align 8 dereferenceable(8) ptr @_ZSt3getILm0EJPN4cvc58internal4prop17CadicalPropagatorESt14default_deleteIS3_EEERKNSt13tuple_elementIXT_ESt5tupleIJDpT0_EEE4typeERKSB_(ptr noundef nonnull align 8 dereferenceable(8) %_M_t) #3
  %0 = load ptr, ptr %call, align 8
  ret ptr %0
}

; Function Attrs: mustprogress nounwind uwtable
define linkonce_odr hidden noundef ptr @_ZNKSt10unique_ptrIN4cvc58internal4prop17CadicalPropagatorESt14default_deleteIS3_EE3getEv(ptr noundef nonnull align 8 dereferenceable(8) %this) #4 comdat align 2 {
entry:
  %this.addr = alloca ptr, align 8
  store ptr %this, ptr %this.addr, align 8
  %this1 = load ptr, ptr %this.addr, align 8
  %_M_t = getelementptr inbounds %"class.std::unique_ptr.10", ptr %this1, i32 0, i32 0
  %call = call noundef ptr @_ZNKSt15__uniq_ptr_implIN4cvc58internal4prop17CadicalPropagatorESt14default_deleteIS3_EE6_M_ptrEv(ptr noundef nonnull align 8 dereferenceable(8) %_M_t) #3
  ret ptr %call
}

; Function Attrs: mustprogress nounwind uwtable
define linkonce_odr hidden noundef ptr @_ZNKSt10unique_ptrIN4cvc58internal4prop17CadicalPropagatorESt14default_deleteIS3_EEptEv(ptr noundef nonnull align 8 dereferenceable(8) %this) #4 comdat align 2 {
entry:
  %this.addr = alloca ptr, align 8
  store ptr %this, ptr %this.addr, align 8
  %this1 = load ptr, ptr %this.addr, align 8
  %call = call noundef ptr @_ZNKSt10unique_ptrIN4cvc58internal4prop17CadicalPropagatorESt14default_deleteIS3_EE3getEv(ptr noundef nonnull align 8 dereferenceable(8) %this1) #3
  ret ptr %call
}

; Function Attrs: mustprogress nounwind uwtable
define linkonce_odr hidden noundef zeroext i1 @_ZNKSt10unique_ptrIN4cvc58internal4prop17CadicalPropagatorESt14default_deleteIS3_EEcvbEv(ptr noundef nonnull align 8 dereferenceable(8) %this) #4 comdat align 2 {
entry:
  %this.addr = alloca ptr, align 8
  store ptr %this, ptr %this.addr, align 8
  %this1 = load ptr, ptr %this.addr, align 8
  %call = call noundef ptr @_ZNKSt10unique_ptrIN4cvc58internal4prop17CadicalPropagatorESt14default_deleteIS3_EE3getEv(ptr noundef nonnull align 8 dereferenceable(8) %this1) #3
  %cmp = icmp eq ptr %call, null
  %cond = select i1 %cmp, i1 false, i1 true
  ret i1 %cond
}

; Function Attrs: mustprogress uwtable
define hidden noundef i64 @_ZN4cvc58internal4prop13CadicalSolver6newVarEbb(ptr noundef nonnull align 8 dereferenceable(144) %this, i1 noundef zeroext %isTheoryAtom, i1 noundef zeroext %canErase) unnamed_addr #5 align 2 {
entry:
  %this.addr = alloca ptr, align 8
  %isTheoryAtom.addr = alloca i8, align 1
  %canErase.addr = alloca i8, align 1
  %ref.tmp = alloca i64, align 8
  store ptr %this, ptr %this.addr, align 8
  %frombool = zext i1 %isTheoryAtom to i8
  store i8 %frombool, ptr %isTheoryAtom.addr, align 1
  %frombool1 = zext i1 %canErase to i8
  store i8 %frombool1, ptr %canErase.addr, align 1
  %this2 = load ptr, ptr %this.addr, align 8
  %d_statistics = getelementptr inbounds %"class.cvc5::internal::prop::CadicalSolver", ptr %this2, i32 0, i32 12
  %d_numVariables = getelementptr inbounds %"struct.cvc5::internal::prop::CadicalSolver::Statistics", ptr %d_statistics, i32 0, i32 1
  %call = call noundef nonnull align 8 dereferenceable(8) ptr @_ZN4cvc58internal7IntStatppEv(ptr noundef nonnull align 8 dereferenceable(8) %d_numVariables)
  %d_propagator = getelementptr inbounds %"class.cvc5::internal::prop::CadicalSolver", ptr %this2, i32 0, i32 6
  %call3 = call noundef zeroext i1 @_ZNKSt10unique_ptrIN4cvc58internal4prop17CadicalPropagatorESt14default_deleteIS3_EEcvbEv(ptr noundef nonnull align 8 dereferenceable(8) %d_propagator) #3
  br i1 %call3, label %if.then, label %if.end

if.then:                                          ; preds = %entry
  %d_propagator4 = getelementptr inbounds %"class.cvc5::internal::prop::CadicalSolver", ptr %this2, i32 0, i32 6
  %call5 = call noundef ptr @_ZNKSt10unique_ptrIN4cvc58internal4prop17CadicalPropagatorESt14default_deleteIS3_EEptEv(ptr noundef nonnull align 8 dereferenceable(8) %d_propagator4) #3
  %d_nextVarIdx = getelementptr inbounds %"class.cvc5::internal::prop::CadicalSolver", ptr %this2, i32 0, i32 8
  %0 = load i32, ptr %d_nextVarIdx, align 8
  %conv = zext i32 %0 to i64
  store i64 %conv, ptr %ref.tmp, align 8
  %1 = load i8, ptr %isTheoryAtom.addr, align 1
  %tobool = trunc i8 %1 to i1
  call void @_ZN4cvc58internal4prop17CadicalPropagator11add_new_varERKmb(ptr noundef nonnull align 8 dereferenceable(482) %call5, ptr noundef nonnull align 8 dereferenceable(8) %ref.tmp, i1 noundef zeroext %tobool)
  br label %if.end

if.end:                                           ; preds = %if.then, %entry
  %d_nextVarIdx6 = getelementptr inbounds %"class.cvc5::internal::prop::CadicalSolver", ptr %this2, i32 0, i32 8
  %2 = load i32, ptr %d_nextVarIdx6, align 8
  %inc = add i32 %2, 1
  store i32 %inc, ptr %d_nextVarIdx6, align 8
  %conv7 = zext i32 %2 to i64
  ret i64 %conv7
}