; Function Attrs: mustprogress uwtable
define hidden noundef i64 @_ZN4cvc58internal4prop13CadicalSolver6newVarEbb(ptr noundef nonnull align 8 dereferenceable(144) %this, i1 noundef zeroext %isTheoryAtom, i1 zeroext %canErase) unnamed_addr #3 align 2 {
entry:
  %ref.tmp = alloca i64, align 8
  %d_numVariables = getelementptr inbounds i8, ptr %this, i64 120
  %call = tail call noundef nonnull align 8 dereferenceable(8) ptr @_ZN4cvc58internal7IntStatppEv(ptr noundef nonnull align 8 dereferenceable(8) %d_numVariables)
  %d_propagator = getelementptr inbounds i8, ptr %this, i64 56
  %0 = load ptr, ptr %d_propagator, align 8
  %cmp.i.not = icmp eq ptr %0, null
  br i1 %cmp.i.not, label %if.end, label %if.then

if.then:                                          ; preds = %entry
  %d_nextVarIdx = getelementptr inbounds i8, ptr %this, i64 88
  %1 = load i32, ptr %d_nextVarIdx, align 8
  %conv = zext i32 %1 to i64
  store i64 %conv, ptr %ref.tmp, align 8
  call void @_ZN4cvc58internal4prop17CadicalPropagator11add_new_varERKmb(ptr noundef nonnull align 8 dereferenceable(482) %0, ptr noundef nonnull align 8 dereferenceable(8) %ref.tmp, i1 noundef zeroext %isTheoryAtom)
  br label %if.end

if.end:                                           ; preds = %if.then, %entry
  %d_nextVarIdx6 = getelementptr inbounds i8, ptr %this, i64 88
  %2 = load i32, ptr %d_nextVarIdx6, align 8
  %inc = add i32 %2, 1
  store i32 %inc, ptr %d_nextVarIdx6, align 8
  %conv7 = zext i32 %2 to i64
  ret i64 %conv7
}